   1              		.cpu cortex-m7
   2              		.arch armv7e-m
   3              		.fpu fpv5-d16
   4              		.eabi_attribute 28, 1
   5              		.eabi_attribute 20, 1
   6              		.eabi_attribute 21, 1
   7              		.eabi_attribute 23, 3
   8              		.eabi_attribute 24, 1
   9              		.eabi_attribute 25, 1
  10              		.eabi_attribute 26, 1
  11              		.eabi_attribute 30, 6
  12              		.eabi_attribute 34, 1
  13              		.eabi_attribute 18, 4
  14              		.file	"bsp_PWM.c"
  15              		.text
  16              	.Ltext0:
  17              		.cfi_sections	.debug_frame
  18              		.section	.text.bsp_pwm_init,"ax",%progbits
  19              		.align	1
  20              		.p2align 4,,15
  21              		.global	bsp_pwm_init
  22              		.syntax unified
  23              		.thumb
  24              		.thumb_func
  26              	bsp_pwm_init:
  27              	.LFB482:
  28              		.file 1 "user_code/bsp_PWM.c"
   1:user_code/bsp_PWM.c **** #include "bsp_PWM.h"
   2:user_code/bsp_PWM.c **** 
   3:user_code/bsp_PWM.c **** /**
   4:user_code/bsp_PWM.c ****  * @brief  ÂàùÂßãÂåñÊô∫ËÉΩËΩ¶ÊâÄÊúâÁî®Âà∞ÁöÑPWMÊ®°Âùó
   5:user_code/bsp_PWM.c ****  * @param  motor_freq_hz: ÁîµÊú∫PWMÁöÑÈ¢ëÁéá (‰æãÂ¶Ç 17000 Hz)
   6:user_code/bsp_PWM.c ****  * @param  servo_freq_hz: ËàµÊú∫PWMÁöÑÈ¢ëÁéá (ÈÄöÂ∏∏‰∏∫ 50 Hz)
   7:user_code/bsp_PWM.c ****  * @retval None
   8:user_code/bsp_PWM.c ****  */
   9:user_code/bsp_PWM.c **** void bsp_pwm_init(uint32_t motor_freq_hz, uint32_t servo_freq_hz)
  10:user_code/bsp_PWM.c **** {
  29              		.loc 1 10 1
  30              		.cfi_startproc
  31              		@ args = 0, pretend = 0, frame = 8
  32              		@ frame_needed = 0, uses_anonymous_args = 0
  33 0000 00B5     		push	{lr}
  34              		.cfi_def_cfa_offset 4
  35              		.cfi_offset 14, -4
  36 0002 83B0     		sub	sp, sp, #12
  37              		.cfi_def_cfa_offset 16
  38 0004 0190     		str	r0, [sp, #4]
  39 0006 0091     		str	r1, [sp]
  11:user_code/bsp_PWM.c ****     // ---- ÂàùÂßãÂåñÁîµÊú∫PWM (‰ΩøÁî®HRTIM) ----
  12:user_code/bsp_PWM.c ****     // ‰ªé‰Ω†ÁöÑ‰æãÁ®ãÂæóÁü•ÔºåÁîµÊú∫Êé•Âè£‰ΩøÁî®‰∫Ü HRTIM_1
  13:user_code/bsp_PWM.c ****     zf_hrtim_module_init(HRTIM_1, motor_freq_hz);
  40              		.loc 1 13 5
  41 0008 0199     		ldr	r1, [sp, #4]
  42 000a 0020     		movs	r0, #0
  43 000c FFF7FEFF 		bl	zf_hrtim_module_init
  14:user_code/bsp_PWM.c **** 
  15:user_code/bsp_PWM.c ****     // ÂàùÂßãÂåñ HRTIM ÁöÑÂõõ‰∏™ÈÄöÈÅìÔºåÂàùÂßãÂç†Á©∫ÊØî‰∏∫0
  16:user_code/bsp_PWM.c ****     zf_hrtim_channel_init(HRTIM1_CHA1_E4, 0); // ÂØπÂ∫î BSP_PWM_MOTOR_L1
  44              		.loc 1 16 5
  45 0010 0021     		movs	r1, #0
  46 0012 43F28400 		movw	r0, #12420
  47 0016 FFF7FEFF 		bl	zf_hrtim_channel_init
  17:user_code/bsp_PWM.c ****     zf_hrtim_channel_init(HRTIM1_CHB1_E2, 0); // ÂØπÂ∫î BSP_PWM_MOTOR_L2
  48              		.loc 1 17 5
  49 001a 0021     		movs	r1, #0
  50 001c 1448     		ldr	r0, .L2
  51 001e FFF7FEFF 		bl	zf_hrtim_channel_init
  18:user_code/bsp_PWM.c ****     zf_hrtim_channel_init(HRTIM1_CHD1_D13, 0); // ÂØπÂ∫î BSP_PWM_MOTOR_R1
  52              		.loc 1 18 5
  53 0022 0021     		movs	r1, #0
  54 0024 1348     		ldr	r0, .L2+4
  55 0026 FFF7FEFF 		bl	zf_hrtim_channel_init
  19:user_code/bsp_PWM.c ****     zf_hrtim_channel_init(HRTIM1_CHF1_D8, 0);  // ÂØπÂ∫î BSP_PWM_MOTOR_R2
  56              		.loc 1 19 5
  57 002a 0021     		movs	r1, #0
  58 002c 1248     		ldr	r0, .L2+8
  59 002e FFF7FEFF 		bl	zf_hrtim_channel_init
  20:user_code/bsp_PWM.c **** 
  21:user_code/bsp_PWM.c ****     // ---- ÂàùÂßãÂåñËàµÊú∫PWM (‰ΩøÁî®Ê†áÂáÜTIM) ----
  22:user_code/bsp_PWM.c ****     // ‰ªé‰Ω†ÁöÑ‰æãÁ®ãÂæóÁü•ÔºåËàµÊú∫Êé•Âè£‰ΩøÁî®‰∫Ü TIM8 Âíå TIM16
  23:user_code/bsp_PWM.c ****     zf_pwm_module_init(PWM_TIM8, PWM_ALIGNMENT_EDGE, servo_freq_hz);
  60              		.loc 1 23 5
  61 0032 009A     		ldr	r2, [sp]
  62 0034 0021     		movs	r1, #0
  63 0036 0120     		movs	r0, #1
  64 0038 FFF7FEFF 		bl	zf_pwm_module_init
  24:user_code/bsp_PWM.c ****     zf_pwm_module_init(PWM_TIM16, PWM_ALIGNMENT_EDGE, servo_freq_hz);
  65              		.loc 1 24 5
  66 003c 009A     		ldr	r2, [sp]
  67 003e 0021     		movs	r1, #0
  68 0040 0720     		movs	r0, #7
  69 0042 FFF7FEFF 		bl	zf_pwm_module_init
  25:user_code/bsp_PWM.c **** 
  26:user_code/bsp_PWM.c ****     // ÂàùÂßãÂåñ TIM8 Âíå TIM16 ÁöÑÂõõ‰∏™ÈÄöÈÅìÔºåÂàùÂßãÂç†Á©∫ÊØî‰∏∫0
  27:user_code/bsp_PWM.c ****     zf_pwm_channel_init(PWM_TIM8_CH1_I0, 0); // ÂØπÂ∫î BSP_PWM_SERVO_1
  70              		.loc 1 27 5
  71 0046 0021     		movs	r1, #0
  72 0048 0C48     		ldr	r0, .L2+12
  73 004a FFF7FEFF 		bl	zf_pwm_channel_init
  28:user_code/bsp_PWM.c ****     zf_pwm_channel_init(PWM_TIM8_CH2_I2, 0); // ÂØπÂ∫î BSP_PWM_SERVO_2
  74              		.loc 1 28 5
  75 004e 0021     		movs	r1, #0
  76 0050 0B48     		ldr	r0, .L2+16
  77 0052 FFF7FEFF 		bl	zf_pwm_channel_init
  29:user_code/bsp_PWM.c ****     zf_pwm_channel_init(PWM_TIM8_CH3_I4, 0); // ÂØπÂ∫î BSP_PWM_SERVO_3
  78              		.loc 1 29 5
  79 0056 0021     		movs	r1, #0
  80 0058 0A48     		ldr	r0, .L2+20
  81 005a FFF7FEFF 		bl	zf_pwm_channel_init
  30:user_code/bsp_PWM.c ****     zf_pwm_channel_init(PWM_TIM16_CH1_I5, 0);// ÂØπÂ∫î BSP_PWM_SERVO_4
  82              		.loc 1 30 5
  83 005e 0021     		movs	r1, #0
  84 0060 0948     		ldr	r0, .L2+24
  85 0062 FFF7FEFF 		bl	zf_pwm_channel_init
  31:user_code/bsp_PWM.c **** 
  32:user_code/bsp_PWM.c ****     // ---- [ÂèØÈÄâ] ÂàùÂßãÂåñLEDÁöÑPWM ----
  33:user_code/bsp_PWM.c ****     // ‰Ω†ÂèØ‰ª•Ê†πÊçÆÈúÄË¶ÅÂÜ≥ÂÆöÊòØÂê¶ÂàùÂßãÂåñLED
  34:user_code/bsp_PWM.c ****     // zf_pwm_module_init(PWM_TIM3, PWM_ALIGNMENT_EDGE, 13000);
  35:user_code/bsp_PWM.c ****     // zf_pwm_channel_init(PWM_TIM3_CH1_G14, PWM_DUTY_MAX); // LED ÈªòËÆ§ÁÜÑÁÅ≠
  36:user_code/bsp_PWM.c ****     // zf_pwm_channel_init(PWM_TIM3_CH2_G15, PWM_DUTY_MAX);
  37:user_code/bsp_PWM.c ****     // zf_pwm_channel_init(PWM_TIM3_CH3_H0, PWM_DUTY_MAX);
  38:user_code/bsp_PWM.c **** }
  86              		.loc 1 38 1
  87 0066 00BF     		nop
  88 0068 03B0     		add	sp, sp, #12
  89              		.cfi_def_cfa_offset 4
  90              		@ sp needed
  91 006a 5DF804FB 		ldr	pc, [sp], #4
  92              	.L3:
  93 006e 00BF     		.align	2
  94              	.L2:
  95 0070 82301000 		.word	1060994
  96 0074 6D303000 		.word	3158125
  97 0078 68305000 		.word	5255272
  98 007c 00410100 		.word	82176
  99 0080 02411100 		.word	1130754
 100 0084 04412100 		.word	2179332
 101 0088 05110700 		.word	463109
 102              		.cfi_endproc
 103              	.LFE482:
 105              		.section	.text.bsp_pwm_set_duty,"ax",%progbits
 106              		.align	1
 107              		.p2align 4,,15
 108              		.global	bsp_pwm_set_duty
 109              		.syntax unified
 110              		.thumb
 111              		.thumb_func
 113              	bsp_pwm_set_duty:
 114              	.LFB483:
  39:user_code/bsp_PWM.c **** 
  40:user_code/bsp_PWM.c **** /**
  41:user_code/bsp_PWM.c ****  * @brief  ËÆæÁΩÆÊåáÂÆöÈÄªËæëÈÄöÈÅìÁöÑPWMÂç†Á©∫ÊØî
  42:user_code/bsp_PWM.c ****  * @param  channel: Ë¶ÅÊìç‰ΩúÁöÑÈÄªËæëÈÄöÈÅìÔºåÊù•Ëá™ bsp_pwm_channel_e Êûö‰∏æ
  43:user_code/bsp_PWM.c ****  * @param  duty_permillage: Âç†Á©∫ÊØîÔºå‰∏áÂàÜÊØî (0 - 10000)Ôºå‰æãÂ¶Ç 5000 ‰ª£Ë°® 50%
  44:user_code/bsp_PWM.c ****  * @retval None
  45:user_code/bsp_PWM.c ****  */
  46:user_code/bsp_PWM.c **** void bsp_pwm_set_duty(bsp_pwm_channel_e channel, uint16_t duty_permillage)
  47:user_code/bsp_PWM.c **** {
 115              		.loc 1 47 1
 116              		.cfi_startproc
 117              		@ args = 0, pretend = 0, frame = 16
 118              		@ frame_needed = 0, uses_anonymous_args = 0
 119 0000 00B5     		push	{lr}
 120              		.cfi_def_cfa_offset 4
 121              		.cfi_offset 14, -4
 122 0002 85B0     		sub	sp, sp, #20
 123              		.cfi_def_cfa_offset 24
 124 0004 0346     		mov	r3, r0
 125 0006 0A46     		mov	r2, r1
 126 0008 8DF80730 		strb	r3, [sp, #7]
 127 000c 1346     		mov	r3, r2	@ movhi
 128 000e ADF80430 		strh	r3, [sp, #4]	@ movhi
  48:user_code/bsp_PWM.c ****     // ËæìÂÖ•Ê£ÄÊü•ÔºåÈò≤Ê≠¢Ë∂ÖÂá∫ËåÉÂõ¥
  49:user_code/bsp_PWM.c ****     if (duty_permillage > 10000)
 129              		.loc 1 49 8
 130 0012 BDF80430 		ldrh	r3, [sp, #4]
 131 0016 42F21072 		movw	r2, #10000
 132 001a 9342     		cmp	r3, r2
 133 001c 03D9     		bls	.L5
  50:user_code/bsp_PWM.c ****     {
  51:user_code/bsp_PWM.c ****         duty_permillage = 10000;
 134              		.loc 1 51 25
 135 001e 42F21073 		movw	r3, #10000
 136 0022 ADF80430 		strh	r3, [sp, #4]	@ movhi
 137              	.L5:
  52:user_code/bsp_PWM.c ****     }
  53:user_code/bsp_PWM.c **** 
  54:user_code/bsp_PWM.c ****     // Â∞Ü‰∏áÂàÜÊØîÁöÑÂç†Á©∫ÊØî (0-10000) Êò†Â∞ÑÂà∞ÈÄêÈ£ûÂ∫ì‰ΩøÁî®ÁöÑÂç†Á©∫ÊØîÂÄº
  55:user_code/bsp_PWM.c ****     // ÈÄêÈ£ûÂ∫ìÁöÑ PWM_DUTY_MAX ÂÆèÂÆö‰πâ‰∫ÜÊúÄÂ§ßÂç†Á©∫ÊØîÂÄºÔºåÊàë‰ª¨Áõ¥Êé•Áî®ÂÆÉÊù•ËÆ°ÁÆó
  56:user_code/bsp_PWM.c ****     uint16_t zf_duty = (uint32_t)duty_permillage * PWM_DUTY_MAX / 10000;
 138              		.loc 1 56 24
 139 0026 BDF80430 		ldrh	r3, [sp, #4]
 140              		.loc 1 56 50
 141 002a 42F21072 		movw	r2, #10000
 142 002e 02FB03F3 		mul	r3, r2, r3
 143              		.loc 1 56 65
 144 0032 3F4A     		ldr	r2, .L21
 145 0034 A2FB0323 		umull	r2, r3, r2, r3
 146 0038 5B0B     		lsrs	r3, r3, #13
 147              		.loc 1 56 14
 148 003a ADF80E30 		strh	r3, [sp, #14]	@ movhi
  57:user_code/bsp_PWM.c **** 
  58:user_code/bsp_PWM.c ****     // ‰ΩøÁî® switch ËØ≠Âè•Â∞ÜÈÄªËæëÈÄöÈÅìÊò†Â∞ÑÂà∞ÂÖ∑‰ΩìÁöÑÈÄêÈ£ûÂ∫ìÂáΩÊï∞Ë∞ÉÁî®
  59:user_code/bsp_PWM.c ****     switch (channel)
 149              		.loc 1 59 5
 150 003e 9DF80730 		ldrb	r3, [sp, #7]	@ zero_extendqisi2
 151 0042 0A2B     		cmp	r3, #10
 152 0044 6FD8     		bhi	.L20
 153 0046 01A2     		adr	r2, .L8
 154 0048 52F823F0 		ldr	pc, [r2, r3, lsl #2]
 155              		.p2align 2
 156              	.L8:
 157 004c 79000000 		.word	.L18+1
 158 0050 87000000 		.word	.L17+1
 159 0054 95000000 		.word	.L16+1
 160 0058 A3000000 		.word	.L15+1
 161 005c B1000000 		.word	.L14+1
 162 0060 C1000000 		.word	.L13+1
 163 0064 CF000000 		.word	.L12+1
 164 0068 DD000000 		.word	.L11+1
 165 006c EB000000 		.word	.L10+1
 166 0070 FF000000 		.word	.L9+1
 167 0074 13010000 		.word	.L7+1
 168              		.p2align 1
 169              	.L18:
  60:user_code/bsp_PWM.c ****     {
  61:user_code/bsp_PWM.c ****         // -- ËàµÊú∫ÈÄöÈÅì --
  62:user_code/bsp_PWM.c ****         case BSP_PWM_SERVO_1:
  63:user_code/bsp_PWM.c ****             zf_pwm_set_duty(PWM_TIM8_CH1_I0, zf_duty);
 170              		.loc 1 63 13
 171 0078 BDF80E30 		ldrh	r3, [sp, #14]
 172 007c 1946     		mov	r1, r3
 173 007e 2D48     		ldr	r0, .L21+4
 174 0080 FFF7FEFF 		bl	zf_pwm_set_duty
  64:user_code/bsp_PWM.c ****             break;
 175              		.loc 1 64 13
 176 0084 50E0     		b	.L19
 177              	.L17:
  65:user_code/bsp_PWM.c ****         case BSP_PWM_SERVO_2:
  66:user_code/bsp_PWM.c ****             zf_pwm_set_duty(PWM_TIM8_CH2_I2, zf_duty);
 178              		.loc 1 66 13
 179 0086 BDF80E30 		ldrh	r3, [sp, #14]
 180 008a 1946     		mov	r1, r3
 181 008c 2A48     		ldr	r0, .L21+8
 182 008e FFF7FEFF 		bl	zf_pwm_set_duty
  67:user_code/bsp_PWM.c ****             break;
 183              		.loc 1 67 13
 184 0092 49E0     		b	.L19
 185              	.L16:
  68:user_code/bsp_PWM.c ****         case BSP_PWM_SERVO_3:
  69:user_code/bsp_PWM.c ****             zf_pwm_set_duty(PWM_TIM8_CH3_I4, zf_duty);
 186              		.loc 1 69 13
 187 0094 BDF80E30 		ldrh	r3, [sp, #14]
 188 0098 1946     		mov	r1, r3
 189 009a 2848     		ldr	r0, .L21+12
 190 009c FFF7FEFF 		bl	zf_pwm_set_duty
  70:user_code/bsp_PWM.c ****             break;
 191              		.loc 1 70 13
 192 00a0 42E0     		b	.L19
 193              	.L15:
  71:user_code/bsp_PWM.c ****         case BSP_PWM_SERVO_4:
  72:user_code/bsp_PWM.c ****             zf_pwm_set_duty(PWM_TIM16_CH1_I5, zf_duty);
 194              		.loc 1 72 13
 195 00a2 BDF80E30 		ldrh	r3, [sp, #14]
 196 00a6 1946     		mov	r1, r3
 197 00a8 2548     		ldr	r0, .L21+16
 198 00aa FFF7FEFF 		bl	zf_pwm_set_duty
  73:user_code/bsp_PWM.c ****             break;
 199              		.loc 1 73 13
 200 00ae 3BE0     		b	.L19
 201              	.L14:
  74:user_code/bsp_PWM.c **** 
  75:user_code/bsp_PWM.c ****         // -- ÁîµÊú∫ÈÄöÈÅì --
  76:user_code/bsp_PWM.c ****         case BSP_PWM_MOTOR_L1:
  77:user_code/bsp_PWM.c ****             zf_hrtim_set_duty(HRTIM1_CHA1_E4, zf_duty);
 202              		.loc 1 77 13
 203 00b0 BDF80E30 		ldrh	r3, [sp, #14]
 204 00b4 1946     		mov	r1, r3
 205 00b6 43F28400 		movw	r0, #12420
 206 00ba FFF7FEFF 		bl	zf_hrtim_set_duty
  78:user_code/bsp_PWM.c ****             break;
 207              		.loc 1 78 13
 208 00be 33E0     		b	.L19
 209              	.L13:
  79:user_code/bsp_PWM.c ****         case BSP_PWM_MOTOR_L2:
  80:user_code/bsp_PWM.c ****             zf_hrtim_set_duty(HRTIM1_CHB1_E2, zf_duty);
 210              		.loc 1 80 13
 211 00c0 BDF80E30 		ldrh	r3, [sp, #14]
 212 00c4 1946     		mov	r1, r3
 213 00c6 1F48     		ldr	r0, .L21+20
 214 00c8 FFF7FEFF 		bl	zf_hrtim_set_duty
  81:user_code/bsp_PWM.c ****             break;
 215              		.loc 1 81 13
 216 00cc 2CE0     		b	.L19
 217              	.L12:
  82:user_code/bsp_PWM.c ****         case BSP_PWM_MOTOR_R1:
  83:user_code/bsp_PWM.c ****             zf_hrtim_set_duty(HRTIM1_CHD1_D13, zf_duty);
 218              		.loc 1 83 13
 219 00ce BDF80E30 		ldrh	r3, [sp, #14]
 220 00d2 1946     		mov	r1, r3
 221 00d4 1C48     		ldr	r0, .L21+24
 222 00d6 FFF7FEFF 		bl	zf_hrtim_set_duty
  84:user_code/bsp_PWM.c ****             break;
 223              		.loc 1 84 13
 224 00da 25E0     		b	.L19
 225              	.L11:
  85:user_code/bsp_PWM.c ****         case BSP_PWM_MOTOR_R2:
  86:user_code/bsp_PWM.c ****             zf_hrtim_set_duty(HRTIM1_CHF1_D8, zf_duty);
 226              		.loc 1 86 13
 227 00dc BDF80E30 		ldrh	r3, [sp, #14]
 228 00e0 1946     		mov	r1, r3
 229 00e2 1A48     		ldr	r0, .L21+28
 230 00e4 FFF7FEFF 		bl	zf_hrtim_set_duty
  87:user_code/bsp_PWM.c ****             break;
 231              		.loc 1 87 13
 232 00e8 1EE0     		b	.L19
 233              	.L10:
  88:user_code/bsp_PWM.c **** 
  89:user_code/bsp_PWM.c ****         // -- LED ÈÄöÈÅì --
  90:user_code/bsp_PWM.c ****         case BSP_PWM_LED_R:
  91:user_code/bsp_PWM.c ****             zf_pwm_set_duty(PWM_TIM3_CH1_G14, PWM_DUTY_MAX - zf_duty); // LEDÊòØÂÖ±Èò≥Êé•Ê≥ïÔºåÈ´òÂ
 234              		.loc 1 91 60
 235 00ea BDF80E20 		ldrh	r2, [sp, #14]
 236 00ee 42F21073 		movw	r3, #10000
 237 00f2 9B1A     		subs	r3, r3, r2
 238              		.loc 1 91 13
 239 00f4 1946     		mov	r1, r3
 240 00f6 1648     		ldr	r0, .L21+32
 241 00f8 FFF7FEFF 		bl	zf_pwm_set_duty
  92:user_code/bsp_PWM.c ****             break;
 242              		.loc 1 92 13
 243 00fc 14E0     		b	.L19
 244              	.L9:
  93:user_code/bsp_PWM.c ****         case BSP_PWM_LED_G:
  94:user_code/bsp_PWM.c ****             zf_pwm_set_duty(PWM_TIM3_CH2_G15, PWM_DUTY_MAX - zf_duty);
 245              		.loc 1 94 60
 246 00fe BDF80E20 		ldrh	r2, [sp, #14]
 247 0102 42F21073 		movw	r3, #10000
 248 0106 9B1A     		subs	r3, r3, r2
 249              		.loc 1 94 13
 250 0108 1946     		mov	r1, r3
 251 010a 1248     		ldr	r0, .L21+36
 252 010c FFF7FEFF 		bl	zf_pwm_set_duty
  95:user_code/bsp_PWM.c ****             break;
 253              		.loc 1 95 13
 254 0110 0AE0     		b	.L19
 255              	.L7:
  96:user_code/bsp_PWM.c ****         case BSP_PWM_LED_B:
  97:user_code/bsp_PWM.c ****             zf_pwm_set_duty(PWM_TIM3_CH3_H0, PWM_DUTY_MAX - zf_duty);
 256              		.loc 1 97 59
 257 0112 BDF80E20 		ldrh	r2, [sp, #14]
 258 0116 42F21073 		movw	r3, #10000
 259 011a 9B1A     		subs	r3, r3, r2
 260              		.loc 1 97 13
 261 011c 1946     		mov	r1, r3
 262 011e 0E48     		ldr	r0, .L21+40
 263 0120 FFF7FEFF 		bl	zf_pwm_set_duty
  98:user_code/bsp_PWM.c ****             break;
 264              		.loc 1 98 13
 265 0124 00E0     		b	.L19
 266              	.L20:
  99:user_code/bsp_PWM.c **** 
 100:user_code/bsp_PWM.c ****         default:
 101:user_code/bsp_PWM.c ****             // Êó†ÊïàÈÄöÈÅìÔºå‰∏çÂÅö‰ªª‰Ωï‰∫ã
 102:user_code/bsp_PWM.c ****             break;
 267              		.loc 1 102 13
 268 0126 00BF     		nop
 269              	.L19:
 103:user_code/bsp_PWM.c ****     }
 104:user_code/bsp_PWM.c **** }/*
 270              		.loc 1 104 1
 271 0128 00BF     		nop
 272 012a 05B0     		add	sp, sp, #20
 273              		.cfi_def_cfa_offset 4
 274              		@ sp needed
 275 012c 5DF804FB 		ldr	pc, [sp], #4
 276              	.L22:
 277              		.align	2
 278              	.L21:
 279 0130 5917B7D1 		.word	-776530087
 280 0134 00410100 		.word	82176
 281 0138 02411100 		.word	1130754
 282 013c 04412100 		.word	2179332
 283 0140 05110700 		.word	463109
 284 0144 82301000 		.word	1060994
 285 0148 6D303000 		.word	3158125
 286 014c 68305000 		.word	5255272
 287 0150 CE200400 		.word	270542
 288 0154 CF201400 		.word	1319119
 289 0158 E0202400 		.word	2367712
 290              		.cfi_endproc
 291              	.LFE483:
 293              		.text
 294              	.Letext0:
 295              		.file 2 "c:\\stellarstudio-7.1\\sdks\\tools-1.4.0\\toolchain\\arm\\mingw64_nt\\10.3-2021.10\\arm-n
 296              		.file 3 "c:\\stellarstudio-7.1\\sdks\\tools-1.4.0\\toolchain\\arm\\mingw64_nt\\10.3-2021.10\\arm-n
 297              		.file 4 "libraries/zf_driver/zf_driver_hrtim.h"
 298              		.file 5 "libraries/zf_driver/zf_driver_pwm.h"
 299              		.file 6 "user_code/bsp_PWM.h"