   1              		.cpu cortex-m7
   2              		.arch armv7e-m
   3              		.fpu fpv5-d16
   4              		.eabi_attribute 28, 1
   5              		.eabi_attribute 20, 1
   6              		.eabi_attribute 21, 1
   7              		.eabi_attribute 23, 3
   8              		.eabi_attribute 24, 1
   9              		.eabi_attribute 25, 1
  10              		.eabi_attribute 26, 1
  11              		.eabi_attribute 30, 6
  12              		.eabi_attribute 34, 1
  13              		.eabi_attribute 18, 4
  14              		.file	"main_navigation_test.c"
  15              		.text
  16              	.Ltext0:
  17              		.cfi_sections	.debug_frame
  18              		.global	g_navigation_tick_count
  19              		.section	.bss.g_navigation_tick_count,"aw",%nobits
  20              		.align	2
  23              	g_navigation_tick_count:
  24 0000 00000000 		.space	4
  25              		.section	.text.navigation_isr_callback,"ax",%progbits
  26              		.align	1
  27              		.p2align 4,,15
  28              		.global	navigation_isr_callback
  29              		.syntax unified
  30              		.thumb
  31              		.thumb_func
  33              	navigation_isr_callback:
  34              	.LFB482:
  35              		.file 1 "src/main_navigation_test.c"
   1:src/main_navigation_test.c **** /**************************************************************************************************
   2:src/main_navigation_test.c ****  * 文件名称          main_navigation_test.c
   3:src/main_navigation_test.c ****  * 功能描述          RTK自主导航系统的主测试程序
   4:src/main_navigation_test.c ****  * 版本信息          V1.2 (修正编译警告)
   5:src/main_navigation_test.c ****  * 开发环境          StellarStudio
   6:src/main_navigation_test.c ****  * 适用平台          Stellar-SR5E1E3 (基于逐飞开源库)
   7:src/main_navigation_test.c ****  **************************************************************************************************
   8:src/main_navigation_test.c **** 
   9:src/main_navigation_test.c **** #include "zf_libraries_headfile.h"
  10:src/main_navigation_test.c **** 
  11:src/main_navigation_test.c **** // 包含我们自己编写的所有核心模块头文件
  12:src/main_navigation_test.c **** #include "bsp_uart.h"
  13:src/main_navigation_test.c **** #include "bsp_rtk.h"
  14:src/main_navigation_test.c **** #include "speed_control.h"
  15:src/main_navigation_test.c **** #include "path_manager.h"   // path_manager.h 已经被包含了，很好
  16:src/main_navigation_test.c **** 
  17:src/main_navigation_test.c **** // [AI-MOD] 添加此行以解决 "implicit declaration" 警告
  18:src/main_navigation_test.c **** // 因为本文件调用了 navigation_init() 和 navigation_run_once()，
  19:src/main_navigation_test.c **** // 所以必须包含它们的声明文件 navigation.h
  20:src/main_navigation_test.c **** #include "navigation.h"
  21:src/main_navigation_test.c **** 
  22:src/main_navigation_test.c **** // ================== 全局变量 ==================
  23:src/main_navigation_test.c **** 
  24:src/main_navigation_test.c **** volatile uint32_t g_navigation_tick_count = 0;
  25:src/main_navigation_test.c **** 
  26:src/main_navigation_test.c **** // ================== 中断服务程序 ==================
  27:src/main_navigation_test.c **** 
  28:src/main_navigation_test.c **** /**
  29:src/main_navigation_test.c ****  * @brief  导航控制循环的中断服务程序 (ISR - Interrupt Service Routine)
  30:src/main_navigation_test.c ****  */
  31:src/main_navigation_test.c **** void navigation_isr_callback(uint32_t event, void *ptr)
  32:src/main_navigation_test.c **** {
  36              		.loc 1 32 1
  37              		.cfi_startproc
  38              		@ args = 0, pretend = 0, frame = 80
  39              		@ frame_needed = 0, uses_anonymous_args = 0
  40 0000 00B5     		push	{lr}
  41              		.cfi_def_cfa_offset 4
  42              		.cfi_offset 14, -4
  43 0002 95B0     		sub	sp, sp, #84
  44              		.cfi_def_cfa_offset 88
  45 0004 0190     		str	r0, [sp, #4]
  46 0006 0091     		str	r1, [sp]
  33:src/main_navigation_test.c ****     (void)event;
  34:src/main_navigation_test.c ****     (void)ptr;
  35:src/main_navigation_test.c **** 
  36:src/main_navigation_test.c ****     // 1. 调用RTK数据任务函数，检查并解析新数据
  37:src/main_navigation_test.c ****     if (bsp_rtk_data_task())
  47              		.loc 1 37 9
  48 0008 FFF7FEFF 		bl	bsp_rtk_data_task
  49 000c 0346     		mov	r3, r0
  50              		.loc 1 37 8
  51 000e 002B     		cmp	r3, #0
  52 0010 07D0     		beq	.L2
  53              	.LBB2:
  38:src/main_navigation_test.c ****     {
  39:src/main_navigation_test.c ****         // 2. 只有在确认有新的、有效的数据时，才执行导航计算
  40:src/main_navigation_test.c ****         gnss_info_struct rtk_info = bsp_rtk_get_info();
  54              		.loc 1 40 37
  55 0012 02AB     		add	r3, sp, #8
  56 0014 1846     		mov	r0, r3
  57 0016 FFF7FEFF 		bl	bsp_rtk_get_info
  41:src/main_navigation_test.c **** 
  42:src/main_navigation_test.c ****         // 将这份新鲜的数据传递给导航计算函数
  43:src/main_navigation_test.c ****         navigation_run_once(&rtk_info);
  58              		.loc 1 43 9
  59 001a 02AB     		add	r3, sp, #8
  60 001c 1846     		mov	r0, r3
  61 001e FFF7FEFF 		bl	navigation_run_once
  62              	.L2:
  63              	.LBE2:
  44:src/main_navigation_test.c ****     }
  45:src/main_navigation_test.c ****     // 如果 bsp_rtk_data_task() 返回false，本周期内不做任何导航计算
  46:src/main_navigation_test.c **** 
  47:src/main_navigation_test.c ****     // 3. 中断计数器自增
  48:src/main_navigation_test.c ****     g_navigation_tick_count++;
  64              		.loc 1 48 28
  65 0022 044B     		ldr	r3, .L3
  66 0024 1B68     		ldr	r3, [r3]
  67 0026 0133     		adds	r3, r3, #1
  68 0028 024A     		ldr	r2, .L3
  69 002a 1360     		str	r3, [r2]
  49:src/main_navigation_test.c **** }
  70              		.loc 1 49 1
  71 002c 00BF     		nop
  72 002e 15B0     		add	sp, sp, #84
  73              		.cfi_def_cfa_offset 4
  74              		@ sp needed
  75 0030 5DF804FB 		ldr	pc, [sp], #4
  76              	.L4:
  77              		.align	2
  78              	.L3:
  79 0034 00000000 		.word	g_navigation_tick_count
  80              		.cfi_endproc
  81              	.LFE482:
  83              		.section	.rodata
  84              		.align	2
  85              	.LC0:
  86 0000 0D0A3D3D 		.ascii	"\015\012==========================================="
  86      3D3D3D3D 
  86      3D3D3D3D 
  86      3D3D3D3D 
  86      3D3D3D3D 
  87 002d 3D0D00   		.ascii	"=\015\000"
  88              		.align	2
  89              	.LC1:
  90 0030 3D202020 		.ascii	"=       RTK Autonomous Navigation Test       =\015\000"
  90      20202020 
  90      52544B20 
  90      4175746F 
  90      6E6F6D6F 
  91              		.align	2
  92              	.LC2:
  93 0060 3D3D3D3D 		.ascii	"============================================\015\000"
  93      3D3D3D3D 
  93      3D3D3D3D 
  93      3D3D3D3D 
  93      3D3D3D3D 
  94 008e 0000     		.align	2
  95              	.LC3:
  96 0090 53797374 		.ascii	"System Initialized. Navigation ISR is running at 10"
  96      656D2049 
  96      6E697469 
  96      616C697A 
  96      65642E20 
  97 00c3 487A2E0D 		.ascii	"Hz.\015\000"
  97      00
  98              		.align	2
  99              	.LC4:
 100 00c8 506C6561 		.ascii	"Please ensure the vehicle is in a safe, open area.\015"
 100      73652065 
 100      6E737572 
 100      65207468 
 100      65207665 
 101 00fb 0A0D00   		.ascii	"\012\015\000"
 102              		.section	.text.main,"ax",%progbits
 103              		.align	1
 104              		.p2align 4,,15
 105              		.global	main
 106              		.syntax unified
 107              		.thumb
 108              		.thumb_func
 110              	main:
 111              	.LFB483:
  50:src/main_navigation_test.c **** 
  51:src/main_navigation_test.c **** // ================== 主函数 ==================
  52:src/main_navigation_test.c **** 
  53:src/main_navigation_test.c **** int main(void)
  54:src/main_navigation_test.c **** {
 112              		.loc 1 54 1
 113              		.cfi_startproc
 114              		@ args = 0, pretend = 0, frame = 0
 115              		@ frame_needed = 0, uses_anonymous_args = 0
 116 0000 08B5     		push	{r3, lr}
 117              		.cfi_def_cfa_offset 8
 118              		.cfi_offset 3, -8
 119              		.cfi_offset 14, -4
  55:src/main_navigation_test.c ****     // 1. 系统级初始化
  56:src/main_navigation_test.c ****     zf_system_clock_init(SYSTEM_CLOCK_300M);
 120              		.loc 1 56 5
 121 0002 1348     		ldr	r0, .L7
 122 0004 FFF7FEFF 		bl	zf_system_clock_init
  57:src/main_navigation_test.c ****     // [AI-COMMENT] 你的 bsp_uart_init 函数需要一个参数，假设是 BSP_UART_DEBUG
  58:src/main_navigation_test.c ****     bsp_uart_init(BSP_UART_DEBUG, 460800);
 123              		.loc 1 58 5
 124 0008 4FF4E121 		mov	r1, #460800
 125 000c 0020     		movs	r0, #0
 126 000e FFF7FEFF 		bl	bsp_uart_init
  59:src/main_navigation_test.c **** 
  60:src/main_navigation_test.c ****     // 2. 运动与导航系统初始化
  61:src/main_navigation_test.c ****     bsp_rtk_init();
 127              		.loc 1 61 5
 128 0012 FFF7FEFF 		bl	bsp_rtk_init
  62:src/main_navigation_test.c ****     speed_control_init();
 129              		.loc 1 62 5
 130 0016 FFF7FEFF 		bl	speed_control_init
  63:src/main_navigation_test.c ****     navigation_init(); // 调用 navigation_init
 131              		.loc 1 63 5
 132 001a FFF7FEFF 		bl	navigation_init
  64:src/main_navigation_test.c **** 
  65:src/main_navigation_test.c ****     // 3. 初始化并启动导航定时器中断 (10Hz)
  66:src/main_navigation_test.c ****     zf_pit_ms_init(PIT_TIM5, 100, navigation_isr_callback, NULL);
 133              		.loc 1 66 5
 134 001e 0023     		movs	r3, #0
 135 0020 0C4A     		ldr	r2, .L7+4
 136 0022 6421     		movs	r1, #100
 137 0024 0320     		movs	r0, #3
 138 0026 FFF7FEFF 		bl	zf_pit_ms_init
  67:src/main_navigation_test.c **** 
  68:src/main_navigation_test.c ****     // 4. 打印启动信息
  69:src/main_navigation_test.c ****     printf("\r\n============================================\r\n");
 139              		.loc 1 69 5
 140 002a 0B48     		ldr	r0, .L7+8
 141 002c FFF7FEFF 		bl	puts
  70:src/main_navigation_test.c ****     printf("=       RTK Autonomous Navigation Test       =\r\n");
 142              		.loc 1 70 5
 143 0030 0A48     		ldr	r0, .L7+12
 144 0032 FFF7FEFF 		bl	puts
  71:src/main_navigation_test.c ****     printf("============================================\r\n");
 145              		.loc 1 71 5
 146 0036 0A48     		ldr	r0, .L7+16
 147 0038 FFF7FEFF 		bl	puts
  72:src/main_navigation_test.c ****     printf("System Initialized. Navigation ISR is running at 10Hz.\r\n");
 148              		.loc 1 72 5
 149 003c 0948     		ldr	r0, .L7+20
 150 003e FFF7FEFF 		bl	puts
  73:src/main_navigation_test.c ****     printf("Please ensure the vehicle is in a safe, open area.\r\n\r\n");
 151              		.loc 1 73 5
 152 0042 0948     		ldr	r0, .L7+24
 153 0044 FFF7FEFF 		bl	puts
 154              	.L6:
  74:src/main_navigation_test.c **** 
  75:src/main_navigation_test.c ****     // 5. 主循环
  76:src/main_navigation_test.c ****     for (;;)
  77:src/main_navigation_test.c ****     {
  78:src/main_navigation_test.c ****         // 可以在这里添加一些低优先级的任务，比如状态显示
  79:src/main_navigation_test.c ****         zf_delay_ms(200);
 155              		.loc 1 79 9 discriminator 1
 156 0048 C820     		movs	r0, #200
 157 004a FFF7FEFF 		bl	zf_delay_ms
 158 004e FBE7     		b	.L6
 159              	.L8:
 160              		.align	2
 161              	.L7:
 162 0050 00A3E111 		.word	300000000
 163 0054 00000000 		.word	navigation_isr_callback
 164 0058 00000000 		.word	.LC0
 165 005c 30000000 		.word	.LC1
 166 0060 60000000 		.word	.LC2
 167 0064 90000000 		.word	.LC3
 168 0068 C8000000 		.word	.LC4
 169              		.cfi_endproc
 170              	.LFE483:
 172              		.text
 173              	.Letext0:
 174              		.file 2 "c:\\stellarstudio-7.1\\sdks\\tools-1.4.0\\toolchain\\arm\\mingw64_nt\\10.3-2021.10\\arm-n
 175              		.file 3 "c:\\stellarstudio-7.1\\sdks\\tools-1.4.0\\toolchain\\arm\\mingw64_nt\\10.3-2021.10\\arm-n
 176              		.file 4 "libraries/zf_common/zf_common_typedef.h"
 177              		.file 5 "C:/StellarStudio-7.1/SDKS/StellarESDK-1.7.0/Modules/Platform/MCU/include/sr5e1/sr5e1xx.h"
 178              		.file 6 "libraries/zf_driver/zf_driver_gpio.h"
 179              		.file 7 "libraries/zf_driver/zf_driver_adc.h"
 180              		.file 8 "libraries/zf_driver/zf_driver_can.h"
 181              		.file 9 "libraries/zf_driver/zf_driver_encoder.h"
 182              		.file 10 "libraries/zf_driver/zf_driver_exti.h"
 183              		.file 11 "libraries/zf_driver/zf_driver_hrtim.h"
 184              		.file 12 "libraries/zf_driver/zf_driver_pit.h"
 185              		.file 13 "libraries/zf_driver/zf_driver_pwm.h"
 186              		.file 14 "libraries/zf_driver/zf_driver_spi.h"
 187              		.file 15 "libraries/zf_driver/zf_driver_system.h"
 188              		.file 16 "libraries/zf_driver/../../user_code/bsp_uart.h"
 189              		.file 17 "libraries/zf_driver/zf_driver_uart.h"
 190              		.file 18 "libraries/zf_device/zf_device_imu_interface.h"
 191              		.file 19 "libraries/zf_device/zf_device_wireless_interface.h"
 192              		.file 20 "libraries/zf_device/zf_device_display_interface.h"
 193              		.file 21 "libraries/zf_device/zf_device_gnss.h"